target datalayout = "e-m:e-p270:32:32-p271:32:32-p272:64:64-i64:64-i128:128-f80:128-n8:16:32:64-S128"
target triple = "x86_64-pc-linux-gnu"

%struct.mbedtls_ssl_context = type { ptr, i32, i32, i32, i32, i32, ptr, ptr, ptr, ptr, ptr, ptr, ptr, ptr, ptr, ptr, ptr, ptr, ptr, ptr, ptr, ptr, ptr, ptr, ptr, ptr, ptr, ptr, ptr, ptr, ptr, ptr, ptr, i32, i64, i64, i16, i64, i64, i64, i64, i32, i32, i8, i8, i32, i8, ptr, ptr, ptr, ptr, ptr, ptr, ptr, i32, i64, i64, [8 x i8], i16, ptr, ptr, ptr, i64, i32, i64, [12 x i8], [12 x i8], [32 x i8], i8, i8, ptr, ptr, %union.mbedtls_ssl_user_data_t }
%union.mbedtls_ssl_user_data_t = type { i64 }
%struct.mbedtls_mpi = type { ptr, i16, i16 }
%struct.mbedtls_ssl_handshake_params = type { i8, i8, i8, i8, i8, i32, i8, i8, i8, i8, ptr, ptr, ptr, ptr, ptr, i8, i8, i8, i8, i16, i16, [20 x i16], ptr, ptr, %struct.mbedtls_dhm_context, %struct.mbedtls_ecdh_context, i16, i64, i32, i8, [1024 x i8], i64, ptr, ptr, i64, i16, ptr, ptr, ptr, ptr, %struct.anon, ptr, i16, i8, i32, i32, i32, ptr, ptr, ptr, i32, ptr, [8 x i8], i8, [32 x i8], i8, i16, %struct.mbedtls_md_context_t, %struct.mbedtls_md_context_t, i16, i8, %union.anon.1, [64 x i8], [1076 x i8], i64, i32, i32, i8, ptr, ptr, %union.anon.4, %struct.mbedtls_ssl_tls13_handshake_secrets, ptr, i64, ptr }
%struct.mbedtls_dhm_context = type { %struct.mbedtls_mpi, %struct.mbedtls_mpi, %struct.mbedtls_mpi, %struct.mbedtls_mpi, %struct.mbedtls_mpi, %struct.mbedtls_mpi, %struct.mbedtls_mpi, %struct.mbedtls_mpi, %struct.mbedtls_mpi, %struct.mbedtls_mpi }
%struct.mbedtls_ecdh_context = type { i8, i32, i32, %union.anon }
%union.anon = type { %struct.mbedtls_ecdh_context_mbed }
%struct.mbedtls_ecdh_context_mbed = type { %struct.mbedtls_ecp_group, %struct.mbedtls_mpi, %struct.mbedtls_ecp_point, %struct.mbedtls_ecp_point, %struct.mbedtls_mpi }
%struct.mbedtls_ecp_group = type { i32, %struct.mbedtls_mpi, %struct.mbedtls_mpi, %struct.mbedtls_mpi, %struct.mbedtls_ecp_point, %struct.mbedtls_mpi, i64, i64, i32, ptr, ptr, ptr, ptr, ptr, i64 }
%struct.mbedtls_ecp_point = type { %struct.mbedtls_mpi, %struct.mbedtls_mpi, %struct.mbedtls_mpi }
%struct.anon = type { i64, i8, [4 x %struct.mbedtls_ssl_hs_buffer], %struct.anon.0 }
%struct.mbedtls_ssl_hs_buffer = type { i8, ptr, i64 }
%struct.anon.0 = type { ptr, i64, i32 }
%struct.mbedtls_md_context_t = type { ptr, ptr, ptr }
%union.anon.1 = type { %struct.anon.2 }
%struct.anon.2 = type { i8, [64 x i8], i64 }
%union.anon.4 = type { [64 x i8] }
%struct.mbedtls_ssl_tls13_handshake_secrets = type { [64 x i8], [64 x i8] }

@.str = private unnamed_addr constant [130 x i8] c"generated/home/dtcxzyw/WorkSpace/Projects/compilers/llvm-opt-benchmark/bench/lief/bench_build/mbed_src/library/ssl_tls12_server.c\00", align 1
@.str.8 = private unnamed_addr constant [25 x i8] c"bad client hello message\00", align 1

; Function Attrs: alwaysinline nounwind uwtable
define internal zeroext i16 @mbedtls_get_unaligned_uint16(ptr noundef %0) #7 {
  %2 = alloca ptr, align 8
  %3 = alloca i16, align 2
  store ptr %0, ptr %2, align 8, !tbaa !35
  call void @llvm.lifetime.start.p0(i64 2, ptr %3) #10
  %4 = load ptr, ptr %2, align 8, !tbaa !35
  call void @llvm.memcpy.p0.p0.i64(ptr align 2 %3, ptr align 1 %4, i64 2, i1 false)
  %5 = load i16, ptr %3, align 2, !tbaa !106
  call void @llvm.lifetime.end.p0(i64 2, ptr %3) #10
  ret i16 %5
}

; Function Attrs: nounwind uwtable
define internal i32 @ssl_parse_supported_groups_ext(ptr noundef %0, ptr noundef %1, i64 noundef %2) #0 {
  %4 = alloca i32, align 4
  %5 = alloca ptr, align 8
  %6 = alloca ptr, align 8
  %7 = alloca i64, align 8
  %8 = alloca i64, align 8
  %9 = alloca i64, align 8
  %10 = alloca ptr, align 8
  %11 = alloca ptr, align 8
  %12 = alloca i32, align 4
  %13 = alloca i16, align 2
  store ptr %0, ptr %5, align 8, !tbaa !3
  store ptr %1, ptr %6, align 8, !tbaa !8
  store i64 %2, ptr %7, align 8, !tbaa !10
  call void @llvm.lifetime.start.p0(i64 8, ptr %8) #10
  call void @llvm.lifetime.start.p0(i64 8, ptr %9) #10
  call void @llvm.lifetime.start.p0(i64 8, ptr %10) #10
  call void @llvm.lifetime.start.p0(i64 8, ptr %11) #10
  %14 = load i64, ptr %7, align 8, !tbaa !10
  %15 = icmp ult i64 %14, 2
  br i1 %15, label %16, label %20

16:                                               ; preds = %3
  %17 = load ptr, ptr %5, align 8, !tbaa !3
  call void (ptr, i32, ptr, i32, ptr, ...) @mbedtls_debug_print_msg(ptr noundef %17, i32 noundef 1, ptr noundef @.str, i32 noundef 190, ptr noundef @.str.8)
  %18 = load ptr, ptr %5, align 8, !tbaa !3
  %19 = call i32 @mbedtls_ssl_send_alert_message(ptr noundef %18, i8 noundef zeroext 2, i8 noundef zeroext 50)
  store i32 -29440, ptr %4, align 4
  store i32 1, ptr %12, align 4
  br label %102

20:                                               ; preds = %3
  %21 = load ptr, ptr %6, align 8, !tbaa !8
  %22 = getelementptr inbounds i8, ptr %21, i64 0
  %23 = call zeroext i16 @mbedtls_get_unaligned_uint16(ptr noundef %22)
  %24 = call i16 @llvm.bswap.i16(i16 %23)
  %25 = zext i16 %24 to i32
  %26 = sext i32 %25 to i64
  store i64 %26, ptr %8, align 8, !tbaa !10
  %27 = load i64, ptr %8, align 8, !tbaa !10
  %28 = add i64 %27, 2
  %29 = load i64, ptr %7, align 8, !tbaa !10
  %30 = icmp ne i64 %28, %29
  br i1 %30, label %35, label %31

31:                                               ; preds = %20
  %32 = load i64, ptr %8, align 8, !tbaa !10
  %33 = urem i64 %32, 2
  %34 = icmp ne i64 %33, 0
  br i1 %34, label %35, label %39

35:                                               ; preds = %31, %20
  %36 = load ptr, ptr %5, align 8, !tbaa !3
  call void (ptr, i32, ptr, i32, ptr, ...) @mbedtls_debug_print_msg(ptr noundef %36, i32 noundef 1, ptr noundef @.str, i32 noundef 198, ptr noundef @.str.8)
  %37 = load ptr, ptr %5, align 8, !tbaa !3
  %38 = call i32 @mbedtls_ssl_send_alert_message(ptr noundef %37, i8 noundef zeroext 2, i8 noundef zeroext 50)
  store i32 -29440, ptr %4, align 4
  store i32 1, ptr %12, align 4
  br label %102

39:                                               ; preds = %31
  %40 = load ptr, ptr %5, align 8, !tbaa !3
  %41 = getelementptr inbounds nuw %struct.mbedtls_ssl_context, ptr %40, i32 0, i32 16
  %42 = load ptr, ptr %41, align 8, !tbaa !41
  %43 = getelementptr inbounds nuw %struct.mbedtls_ssl_handshake_params, ptr %42, i32 0, i32 32
  %44 = load ptr, ptr %43, align 8, !tbaa !139
  %45 = icmp ne ptr %44, null
  br i1 %45, label %46, label %50

46:                                               ; preds = %39
  %47 = load ptr, ptr %5, align 8, !tbaa !3
  call void (ptr, i32, ptr, i32, ptr, ...) @mbedtls_debug_print_msg(ptr noundef %47, i32 noundef 1, ptr noundef @.str, i32 noundef 206, ptr noundef @.str.8)
  %48 = load ptr, ptr %5, align 8, !tbaa !3
  %49 = call i32 @mbedtls_ssl_send_alert_message(ptr noundef %48, i8 noundef zeroext 2, i8 noundef zeroext 47)
  store i32 -26112, ptr %4, align 4
  store i32 1, ptr %12, align 4
  br label %102

50:                                               ; preds = %39
  %51 = load i64, ptr %8, align 8, !tbaa !10
  %52 = udiv i64 %51, 2
  %53 = add i64 %52, 1
  store i64 %53, ptr %9, align 8, !tbaa !10
  %54 = load i64, ptr %9, align 8, !tbaa !10
  %55 = icmp ugt i64 %54, 14
  br i1 %55, label %56, label %57

56:                                               ; preds = %50
  store i64 14, ptr %9, align 8, !tbaa !10
  br label %57

57:                                               ; preds = %56, %50
  %58 = load i64, ptr %9, align 8, !tbaa !10
  %59 = call noalias ptr @calloc(i64 noundef %58, i64 noundef 2) #11
  store ptr %59, ptr %11, align 8, !tbaa !78
  %60 = icmp eq ptr %59, null
  br i1 %60, label %61, label %64

61:                                               ; preds = %57
  %62 = load ptr, ptr %5, align 8, !tbaa !3
  %63 = call i32 @mbedtls_ssl_send_alert_message(ptr noundef %62, i8 noundef zeroext 2, i8 noundef zeroext 80)
  store i32 -32512, ptr %4, align 4
  store i32 1, ptr %12, align 4
  br label %102

64:                                               ; preds = %57
  %65 = load ptr, ptr %11, align 8, !tbaa !78
  %66 = load ptr, ptr %5, align 8, !tbaa !3
  %67 = getelementptr inbounds nuw %struct.mbedtls_ssl_context, ptr %66, i32 0, i32 16
  %68 = load ptr, ptr %67, align 8, !tbaa !41
  %69 = getelementptr inbounds nuw %struct.mbedtls_ssl_handshake_params, ptr %68, i32 0, i32 32
  store ptr %65, ptr %69, align 8, !tbaa !139
  %70 = load ptr, ptr %6, align 8, !tbaa !8
  %71 = getelementptr inbounds i8, ptr %70, i64 2
  store ptr %71, ptr %10, align 8, !tbaa !8
  br label %72

72:                                               ; preds = %96, %64
  %73 = load i64, ptr %8, align 8, !tbaa !10
  %74 = icmp ugt i64 %73, 0
  br i1 %74, label %75, label %78

75:                                               ; preds = %72
  %76 = load i64, ptr %9, align 8, !tbaa !10
  %77 = icmp ugt i64 %76, 1
  br label %78

78:                                               ; preds = %75, %72
  %79 = phi i1 [ false, %72 ], [ %77, %75 ]
  br i1 %79, label %80, label %101

80:                                               ; preds = %78
  call void @llvm.lifetime.start.p0(i64 2, ptr %13) #10
  %81 = load ptr, ptr %10, align 8, !tbaa !8
  %82 = getelementptr inbounds i8, ptr %81, i64 0
  %83 = call zeroext i16 @mbedtls_get_unaligned_uint16(ptr noundef %82)
  %84 = call i16 @llvm.bswap.i16(i16 %83)
  %85 = zext i16 %84 to i32
  %86 = trunc i32 %85 to i16
  store i16 %86, ptr %13, align 2, !tbaa !106
  %87 = load i16, ptr %13, align 2, !tbaa !106
  %88 = call i32 @mbedtls_ssl_get_ecp_group_id_from_tls_id(i16 noundef zeroext %87)
  %89 = icmp ne i32 %88, 0
  br i1 %89, label %90, label %96

90:                                               ; preds = %80
  %91 = load i16, ptr %13, align 2, !tbaa !106
  %92 = load ptr, ptr %11, align 8, !tbaa !78
  %93 = getelementptr inbounds nuw i16, ptr %92, i32 1
  store ptr %93, ptr %11, align 8, !tbaa !78
  store i16 %91, ptr %92, align 2, !tbaa !106
  %94 = load i64, ptr %9, align 8, !tbaa !10
  %95 = add i64 %94, -1
  store i64 %95, ptr %9, align 8, !tbaa !10
  br label %96

96:                                               ; preds = %90, %80
  %97 = load i64, ptr %8, align 8, !tbaa !10
  %98 = sub i64 %97, 2
  store i64 %98, ptr %8, align 8, !tbaa !10
  %99 = load ptr, ptr %10, align 8, !tbaa !8
  %100 = getelementptr inbounds i8, ptr %99, i64 2
  store ptr %100, ptr %10, align 8, !tbaa !8
  call void @llvm.lifetime.end.p0(i64 2, ptr %13) #10
  br label %72, !llvm.loop !140

101:                                              ; preds = %78
  store i32 0, ptr %4, align 4
  store i32 1, ptr %12, align 4
  br label %102

102:                                              ; preds = %101, %61, %46, %35, %16
  call void @llvm.lifetime.end.p0(i64 8, ptr %11) #10
  call void @llvm.lifetime.end.p0(i64 8, ptr %10) #10
  call void @llvm.lifetime.end.p0(i64 8, ptr %9) #10
  call void @llvm.lifetime.end.p0(i64 8, ptr %8) #10
  %103 = load i32, ptr %4, align 4
  ret i32 %103
}