; Function Attrs: nounwind uwtable
define internal fastcc range(i32 -32512, 1) i32 @ssl_parse_supported_groups_ext(ptr noundef %0, ptr noundef readonly captures(none) %1, i64 noundef range(i64 0, 65536) %2) unnamed_addr #5 {
  %4 = icmp samesign ult i64 %2, 2
  br i1 %4, label %.loopexit.sink.split.sink.split, label %5

5:                                                ; preds = %3
  %.0.copyload.i38 = load i16, ptr %1, align 1
  %6 = tail call i16 @llvm.bswap.i16(i16 %.0.copyload.i38)
  %7 = zext i16 %6 to i64
  %8 = add nuw nsw i64 %7, 2
  %.not = icmp eq i64 %8, %2
  %9 = and i64 %7, 1
  %.not35 = icmp eq i64 %9, 0
  %or.cond = and i1 %.not, %.not35
  br i1 %or.cond, label %10, label %.loopexit.sink.split.sink.split

10:                                               ; preds = %5
  %11 = getelementptr inbounds nuw i8, ptr %0, i64 112
  %12 = load ptr, ptr %11, align 8, !tbaa !45
  %13 = getelementptr inbounds nuw i8, ptr %12, i64 1672
  %14 = load ptr, ptr %13, align 8, !tbaa !119
  %.not36 = icmp eq ptr %14, null
  br i1 %.not36, label %15, label %.loopexit.sink.split.sink.split

15:                                               ; preds = %10
  %16 = lshr exact i64 %7, 1
  %17 = tail call i64 @llvm.umin.i64(i64 %16, i64 13)
  %spec.store.select = add nuw nsw i64 %17, 1
  %18 = tail call noalias ptr @calloc(i64 noundef %spec.store.select, i64 noundef 2) #13
  %19 = icmp eq ptr %18, null
  br i1 %19, label %.loopexit.sink.split, label %20

20:                                               ; preds = %15
  store ptr %18, ptr %13, align 8, !tbaa !119
  %.not44 = icmp eq i16 %.0.copyload.i38, 0
  br i1 %.not44, label %.loopexit, label %.lr.ph

.lr.ph:                                           ; preds = %20, %26
  %.02943.pn = phi ptr [ %.02943, %26 ], [ %1, %20 ]
  %.02842 = phi ptr [ %.1, %26 ], [ %18, %20 ]
  %.03041 = phi i64 [ %.131, %26 ], [ %spec.store.select, %20 ]
  %.03240 = phi i64 [ %27, %26 ], [ %7, %20 ]
  %.02943 = getelementptr inbounds nuw i8, ptr %.02943.pn, i64 2
  %.0.copyload.i = load i16, ptr %.02943, align 1
  %21 = tail call i16 @llvm.bswap.i16(i16 %.0.copyload.i)
  %22 = tail call i32 @mbedtls_ssl_get_ecp_group_id_from_tls_id(i16 noundef zeroext %21) #12
  %.not37 = icmp eq i32 %22, 0
  br i1 %.not37, label %26, label %23

23:                                               ; preds = %.lr.ph
  %24 = getelementptr inbounds nuw i8, ptr %.02842, i64 2
  store i16 %21, ptr %.02842, align 2, !tbaa !122
  %25 = add nsw i64 %.03041, -1
  br label %26

26:                                               ; preds = %23, %.lr.ph
  %.131 = phi i64 [ %25, %23 ], [ %.03041, %.lr.ph ]
  %.1 = phi ptr [ %24, %23 ], [ %.02842, %.lr.ph ]
  %27 = add i64 %.03240, -2
  %28 = icmp ne i64 %27, 0
  %29 = icmp ugt i64 %.131, 1
  %30 = select i1 %28, i1 %29, i1 false
  br i1 %30, label %.lr.ph, label %.loopexit, !llvm.loop !157

.loopexit.sink.split.sink.split:                  ; preds = %10, %5, %3
  %.sink45 = phi i32 [ 190, %3 ], [ 198, %5 ], [ 206, %10 ]
  %.sink.ph = phi i8 [ 50, %3 ], [ 50, %5 ], [ 47, %10 ]
  %.0.ph.ph = phi i32 [ -29440, %3 ], [ -29440, %5 ], [ -26112, %10 ]
  tail call void (ptr, i32, ptr, i32, ptr, ...) @mbedtls_debug_print_msg(ptr noundef %0, i32 noundef 1, ptr noundef nonnull @.str, i32 noundef %.sink45, ptr noundef nonnull @.str.8) #12
  br label %.loopexit.sink.split

.loopexit.sink.split:                             ; preds = %.loopexit.sink.split.sink.split, %15
  %.sink = phi i8 [ 80, %15 ], [ %.sink.ph, %.loopexit.sink.split.sink.split ]
  %.0.ph = phi i32 [ -32512, %15 ], [ %.0.ph.ph, %.loopexit.sink.split.sink.split ]
  %31 = tail call i32 @mbedtls_ssl_send_alert_message(ptr noundef %0, i8 noundef zeroext 2, i8 noundef zeroext %.sink) #12
  br label %.loopexit

.loopexit:                                        ; preds = %26, %.loopexit.sink.split, %20
  %.0 = phi i32 [ 0, %20 ], [ %.0.ph, %.loopexit.sink.split ], [ 0, %26 ]
  ret i32 %.0
}